LIBRARY	wcp.dll
EXPORTS
0012D300 @ 1
??0CBackupFileCreator@PrimitiveInstaller@@QAE@XZ @ 2
??0CBaseInstaller@PrimitiveInstaller@@IAE@XZ @ 3
??0CCoordinator@PrimitiveInstaller@@QAE@XZ @ 4
??0CFileInstaller@@QAE@XZ @ 5
??0CGacPrimitiveInstaller@@QAE@XZ @ 6
??0CMigInfoInstaller@@QAE@XZ @ 7
??0CQueueExecutor@COM@Windows@@QAE@XZ @ 8
??0CRawInstallMap@InstallMap@@QAE@XZ @ 9
??0CRawStoreLayout@ComponentStore@@QAE@XZ @ 10
??0CRegistryInstaller@@QAE@XZ @ 11
??0CXmlCursor@@QAE@XZ @ 12
??0PrivilegeAcquisition@Rtl@Implementation@WCP@Windows@@QAE@XZ @ 13
??1AIAsimovProvider@COM@Windows@@QAE@XZ @ 14
??1AutoLZMSDecoder@Rtl@WCP@Windows@@QAE@XZ @ 15
??1AutoLZMSEncoder@Rtl@WCP@Windows@@QAE@XZ @ 16
??1CBackupFileCreator@PrimitiveInstaller@@QAE@XZ @ 17
??1CComponentInformation@COM@Windows@@QAE@XZ @ 18
??1CCoordinator@PrimitiveInstaller@@QAE@XZ @ 19
??1CGacPrimitiveInstaller@@QAE@XZ @ 20
??1CMigInfoInstaller@@QAE@XZ @ 21
??1CQueueExecutor@COM@Windows@@QAE@XZ @ 22
??1CRawInstallMap@InstallMap@@QAE@XZ @ 23
??1CRawStoreLayout@ComponentStore@@QAE@XZ @ 24
??1CRegistryInstaller@@QAE@XZ @ 25
??1CSettingsInstaller@@QAE@XZ @ 26
??1CShortcutInstaller@@QAE@XZ @ 27
??1CSysprepInstaller@@QAE@XZ @ 28
??1PrivilegeAcquisition@Rtl@Implementation@WCP@Windows@@QAE@XZ @ 29
?Acquire@PrivilegeAcquisition@Rtl@Implementation@WCP@Windows@@QAEJABU?$Vector@$$CBJ@5@@Z @ 30
?AcquireInstallerComponentPath@LocalInstallerServices@COM@WCP@Windows@@UAGJKPAUIDefinitionIdentity@@PAPA_WPAK@Z @ 31
?AddCatalogMarkFromTlc@CRawStoreLayout@ComponentStore@@QAEJABU_LUNICODE_STRING@@PAUTlcData@2@@Z @ 32
?AddChange@ExecutionQueueDeriver@AiQueue@@QAEJPAUIRtlDefinitionIdentity@Rtl@Identity@Windows@@PAVIRtlCdf@4Cdf@6@01@Z @ 33
?AddComponentImplication@CRawStoreLayout@ComponentStore@@QAEJABUComponentData@2@PAUTlcData@2@@Z @ 34
?AddInspect@ExecutionQueueDeriver@AiQueue@@QAEJPAUIRtlDefinitionIdentity@Rtl@Identity@Windows@@PAVIRtlCdf@4Cdf@6@@Z @ 35
?AddInstallMarkToFamily@CRawInstallMap@InstallMap@@QAEJPAUMapForFamily@2@ABT_FOUR_PART_VERSION@@@Z @ 36
?AddInstallerFailureAnnotation@LocalInstallerServices@COM@WCP@Windows@@UAGJKPA_W@Z @ 37
?AddRef@LocalInstallerServices@COM@WCP@Windows@@UAGKXZ @ 38
?AddRef@LocalTransformerServices@COM@WCP@Windows@@UAGKXZ @ 39
?AddTlcMark@CRawStoreLayout@ComponentStore@@QAEJKABUTlcInstaller@2@PAUTlcData@2@@Z @ 40
?Canonicalize@CBaseCanonicalizer@@QAEJPAUIRtlMicrodom@Rtl@Microdom@Windows@@ABU?$Vector@UNode@Rtl@Microdom@Windows@@@5@PAUIRtlWOFOStream@35@@Z @ 43
?Canonicalize@CC14NCanonicalizer@@MAEJUElement@Rtl@Microdom@Windows@@@Z @ 44
?Canonicalize@CC14NCanonicalizer@@MAEJUProcessingInstruction@Rtl@Microdom@Windows@@@Z @ 45
?Canonicalize@CC14NCanonicalizer@@MAEJUText@Rtl@Microdom@Windows@@@Z @ 46
?CheckComponentFileFlag@CRawStoreLayout@ComponentStore@@QAEJKPAUIRtlDefinitionIdentity@Rtl@Identity@Windows@@U_LUNICODE_STRING@@PA_N@Z @ 47
?CheckComponentFlag@CRawStoreLayout@ComponentStore@@QAEJKPAUIRtlDefinitionIdentity@Rtl@Identity@Windows@@PA_N@Z @ 48
?CleanupInstallMap@CRawInstallMap@InstallMap@@QAEJXZ @ 49
?ClearServicingFamilyWinningVersion@CRawInstallMap@InstallMap@@QAEJPAUMapForFamily@2@PAUIRtlDefinitionIdentity@Rtl@Identity@Windows@@@Z @ 50
?Close@?$Auto@U_ACL@@@Windows@@QAEXXZ @ 51
?Close@?$Auto@U_SECURITY_DESCRIPTOR@@@Windows@@QAEXXZ @ 52
?Close@?$Auto@U_SID@@@Windows@@QAEXXZ @ 53
?Close@AutoDeltaBlob@Rtl@Windows@@QAEXXZ @ 54
?Close@CApplicationAccessor@@QAEXXZ @ 55
?Close@CCatalog@@QAEJXZ @ 56
?CmsGetFileHashInformation@WcpManifest@@SGJABUFile@WcpManifestParser@@PAUHashInfo@Rtl@ManifestParser@Windows@@@Z @ 57
?CoTaskMemAlloc@COM@Windows@@YGPAXK@Z @ 58
?CoTaskMemFree@COM@Windows@@YGXPBX@Z @ 59
?CompressManifest@Rtl@Implementation@WCP@Windows@@YGJK_NPBU_LBLOB@@PAUIRtlFile@14@@Z @ 60
?ConvertIn@COM@Windows@@YGJPAUIDefinitionIdentity@@PAPAUIRtlDefinitionIdentity@Rtl@Identity@2@@Z @ 61
?CopyOutPath@COM@Windows@@YGJPBU_LUNICODE_STRING@@PAPA_W@Z @ 62
?Create@CCatalog@@QAEJKKPBU_LBLOB@@PAK@Z @ 63
?DecompressManifest@Rtl@Implementation@WCP@Windows@@YGJKPAV?$Auto@U_LBLOB@@@4@PAK@Z @ 64
?DeletePendingFiles@CRawStoreLayout@ComponentStore@@QAEJXZ @ 65
?DeltaCompressFile@Rtl@Windows@@YGJKKPAU_LBLOB@@PBU3@0PAUIRtlFile@12@@Z @ 68
?DeltaCompressFile@Rtl@Windows@@YGJKPAUIRtlFile@12@PBU_LBLOB@@00@Z @ 69
?DeltaDecompressBuffer@Rtl@Windows@@YGJKPAU_LBLOB@@K0PAVAutoDeltaBlob@12@@Z @ 70
?DeltaDecompressFile@Rtl@Windows@@YGJPAUIRtlFile@12@K00@Z @ 71
?DestroyOutputStream@Tracing@Windows@@YGXPAUIRtlFormattedOutputStream@Rtl@2@@Z @ 72
?DoesManifestContainAIs@ExecutionQueueDeriver@AiQueue@@QAEJPAVIRtlCdf@Rtl@Cdf@Windows@@PA_N@Z @ 73
?DoesTargetHaveTestRootCert@@YGJPAUIRtlSystemIsolationLayerPublic@Rtl@Windows@@PA_N@Z @ 74
?FileHashAlgorithmToDigest@Rtl@Cms@Windows@@YG?AW4_CMS_HASH_DIGESTMETHOD@23@K@Z @ 77
?FilePathCombine@COM@Windows@@YGJPBGABU_LUNICODE_STRING@@PAV?$Auto@U_LUNICODE_STRING@@@2@@Z @ 78
?Finalize@CC14NCanonicalizer@@MAEJXZ @ 79
?Finalize@ExecutionQueueDeriver@AiQueue@@QAEJPAV?$Auto@U?$Vector@VExecutionQueueEntry@AiQueue@@@Windows@@@Windows@@PAK@Z @ 80
?FinalizeChanges@CCoordinator@PrimitiveInstaller@@QAEJXZ @ 81
?FinalizeValue@CComponentInformationTableTraits@COM@Windows@@SGXAAV?$Auto@PAVCComponentInformation@COM@Windows@@@3@@Z @ 82
?FindSubject@CCatalog@@QBEJKPBU_LBLOB@@PA_NPAJ@Z @ 83
?FindUnchangedMatchingVersions@VersionedIndexHelper@ComponentStore@@QAEJPAUIRtlDefinitionIdentity@Rtl@Identity@Windows@@ABU_LUNICODE_STRING@@KKABU_LBLOB@@PAV?$CVector@T_FOUR_PART_VERSION@@VCCallDisposition@Rtl@BUCL@@@BUCL@@@Z @ 84
?FormatFourPartVersion@Rtl@Implementation@WCP@Windows@@YGJKABT_FOUR_PART_VERSION@@PAE1P6I?AU_RTL_UCSCHAR_ENCODER_RETURN_VALUE@@K11@ZPAPAE@Z @ 85
?FormatNumberIntoBuffer@Rtl@Implementation@WCP@Windows@@YGJ_KKPAE1P6I?AU_RTL_UCSCHAR_ENCODER_RETURN_VALUE@@K11@ZPAPAE@Z @ 86
?FsnpDowncaseChar@@YIKK@Z @ 88
?GenerateCatalogThumbprint@@YGJPAUIRtlFile@Rtl@Windows@@PAV?$Auto@U_LUNICODE_STRING@@@3@@Z @ 89
?GenerateCatalogThumbprint@@YGJPBU_LBLOB@@PAV?$Auto@U_LUNICODE_STRING@@@Windows@@@Z @ 90
?GetComponentAbsolutePath@CRawStoreLayout@ComponentStore@@QAEJKPAUIRtlDefinitionIdentity@Rtl@Identity@Windows@@PAV?$Auto@U_LUNICODE_STRING@@@6@@Z @ 91
?GetComponentFileAbsolutePath@CRawStoreLayout@ComponentStore@@QAEJKPAUIRtlDefinitionIdentity@Rtl@Identity@Windows@@ABU_LUNICODE_STRING@@PAV?$Auto@U_LUNICODE_STRING@@@6@2@Z @ 92
?GetComponentWinningVersion@CRawInstallMap@InstallMap@@QAEJPAUIRtlDefinitionIdentity@Rtl@Identity@Windows@@PAT_FOUR_PART_VERSION@@PA_N_N@Z @ 93
?GetCompressedFileType@Rtl@WCP@Windows@@YGKPBU_LBLOB@@@Z @ 94
?GetCurrentDllWin32Path@COM@Windows@@YGJPAXPAV?$Auto@U_LUNICODE_STRING@@@2@@Z @ 95
?GetExternalDirPath@CRawStoreLayout@ComponentStore@@QAEJPAPBU_LUNICODE_STRING@@@Z @ 96
?GetIsolationAllocator@LocalTransformerServices@COM@WCP@Windows@@UAGJPAPAUIMalloc@@@Z @ 99
?GetLUnicodeParameter@Rtl@Transformers@WCP@Windows@@YGJKPAUICSITransformerServices@@ABU_LUNICODE_STRING@@PAV?$Auto@U_LUNICODE_STRING@@@4@PAK@Z @ 100
?GetNtFilePathParameter@Rtl@Transformers@WCP@Windows@@YGJKPAUICSITransformerServices@@ABU_LUNICODE_STRING@@PAV?$Auto@U_LUNICODE_STRING@@@4@PAKK@Z @ 101
?GetNtRegistryPathParameter@Rtl@Transformers@WCP@Windows@@YGJKPAUICSITransformerServices@@ABU_LUNICODE_STRING@@PAV?$Auto@U_LUNICODE_STRING@@@4@PAKK@Z @ 102
?GetOutputStreamStreamFromSink@Tracing@Windows@@YGXPAUIRtlOutputSink@Rtl@2@PAPAUIRtlFormattedOutputStream@42@@Z @ 103
?GetParameter@LocalTransformerServices@COM@WCP@Windows@@UAGJKPB_WPAPA_WPAK@Z @ 104
?GetRootDirPath@CRawStoreLayout@ComponentStore@@QAEJPAPBU_LUNICODE_STRING@@@Z @ 105
?GetSignerPublicKeyToken@CCatalog@@QAEJPAUIRtlSystemIsolationLayer@Rtl@Windows@@PAU_LBLOB@@@Z @ 106
?GetSystem@LocalTransformerServices@COM@WCP@Windows@@UAGJPAPAUIRtlSystemIsolationLayerPublic@Rtl@4@@Z @ 107
?GetTemporaryDirectory@CRawStoreLayout@ComponentStore@@QAEJKPAV?$Auto@PAUIRtlDirectory@Rtl@Windows@@@Windows@@@Z @ 108
?GetUserProfile@LocalTransformerServices@COM@WCP@Windows@@UAGJPAPAUIRtlUserProfile@Rtl@4@@Z @ 109
?GetWin32FilePathParameter@COM@Transformers@WCP@Windows@@YGJKPAUICSITransformerServices@@PBGPAPAGPAKK@Z @ 110
?GetWin32PathOfSiblingFile@COM@Windows@@YGJPAXPBGPAV?$Auto@U_LUNICODE_STRING@@@2@@Z @ 111
?GetWin32PathOfSiblingFile@COM@Windows@@YGJPAXPB_WPAV?$Auto@U_LUNICODE_STRING@@@2@@Z @ 112
?GetWin32RegistryPathParameter@COM@Transformers@WCP@Windows@@YGJKPAUICSITransformerServices@@PBGPAPAUHKEY__@@PAPAGPAKK@Z @ 113
?InitComponentData@VersionedIndexHelper@ComponentStore@@QAEJ_NPAUIRtlDefinitionIdentity@Rtl@Identity@Windows@@PAUComponentData@2@PA_N@Z @ 114
?Initialize@AutoLZMSDecoder@Rtl@WCP@Windows@@QAEJXZ @ 115
?Initialize@AutoLZMSEncoder@Rtl@WCP@Windows@@QAEJXZ @ 116
?Initialize@CApplicationAccessor@@QAEJPAUIRtlDefinitionAppId@Rtl@AppId@Windows@@PAUIRtlAppIdAuthority@345@@Z @ 117
?Initialize@CBaseCanonicalizer@@MAEJPAUIRtlMicrodom@Rtl@Microdom@Windows@@ABU?$Vector@UNode@Rtl@Microdom@Windows@@@5@PAUIRtlWOFOStream@35@@Z @ 118
?Initialize@CC14NCanonicalizer@@MAEJPAUIRtlMicrodom@Rtl@Microdom@Windows@@ABU?$Vector@UNode@Rtl@Microdom@Windows@@@5@PAUIRtlWOFOStream@35@@Z @ 119
?Initialize@CComponentAccessor@@QAEJPAUIRtlDefinitionIdentity@Rtl@Identity@Windows@@PAUIRtlIdentityAuthority@345@@Z @ 120
?Initialize@CCoordinator@PrimitiveInstaller@@QAEJKKKPAUIRtlPrimitiveInstallerSupport@Rtl@PrimitiveInstallers@Windows@@PAUIRtlPrimitiveInstallerRepairCallback@456@PAUIRtlSystemIsolationLayer@46@@Z @ 121
?Initialize@CQueueExecutor@COM@Windows@@QAEJKPB_WPAVIComponentStoreHelper@23@PAUIRtlSystemIsolationLayer@Rtl@3@PAVCTransactionContent@23@@Z @ 122
?Initialize@CRawInstallMap@InstallMap@@QAEJ_NPAUIRtlIdentityAuthority@Rtl@Identity@Windows@@PAUIRtlKey@46@PAUIRtlSystemIsolationLayer@46@@Z @ 123
?Initialize@CXmlCursor@@QAEJPAXK@Z @ 124
?Initialize@ExecutionQueueDeriver@AiQueue@@QAEJKKK_KPAUIRtlSystemIsolationLayer@Rtl@Windows@@1PBV?$CVector@UTransformsChangeQueueEntry@AiQueue@@VCCallDisposition@Rtl@BUCL@@@BUCL@@@Z @ 125
?Initialize@VersionedIndexHelper@ComponentStore@@QAEJPAUIRtlKey@Rtl@Windows@@_NPAVIStoreLayoutHelper@2@PAUIRtlIdentityAuthority@4Identity@5@@Z @ 126
?InitializeDeltaCompressor@Rtl@Windows@@YGJPAX@Z @ 127
?InitializeStoreContext@CRawStoreLayout@ComponentStore@@QAEJKPAUIRtlIdentityAuthority@Rtl@Identity@Windows@@PAUIRtlAppIdAuthority@4AppId@6@PAUIRtlSystemIsolationLayer@46@2PAUIRtlKey@46@3AAVCRawInstallMap@InstallMap@@PAUIRtlDirectory@46@PAV?$Lock@U_RTL_CRITICAL_SECTION@@@6@5@Z @ 128
?InitializeTlcCanonicalData@CRawStoreLayout@ComponentStore@@QAEJABVCApplicationAccessor@@PAUTlcData@2@PA_N@Z @ 129
?IsComponentFileStaged@CRawStoreLayout@ComponentStore@@QAEJKPAUIRtlDefinitionIdentity@Rtl@Identity@Windows@@ABU_LUNICODE_STRING@@PA_N@Z @ 130
?IsComponentFileStaged@CRawStoreLayout@ComponentStore@@SGJKABUComponentData@2@ABU_LUNICODE_STRING@@PA_N@Z @ 131
?IsDeltaCompressorAvailable@Rtl@Windows@@YGJPA_N@Z @ 132
?IsManifestCompressed@Rtl@Implementation@WCP@Windows@@YGJPBU_LBLOB@@PA_N@Z @ 133
?IsMobileStore@LocalInstallerServices@COM@WCP@Windows@@UAG_NXZ @ 134
?IsStateSeparated@LocalInstallerServices@COM@WCP@Windows@@UAG_NXZ @ 135
?LZMSCompressFile@Rtl@WCP@Windows@@YGJPBU_LBLOB@@PAUIRtlFile@13@1@Z @ 136
?LZMSDecompressBuffer@Rtl@WCP@Windows@@YGJKPBU_LBLOB@@AAV?$Auto@U_LBLOB@@@3@@Z @ 137
?LZMSDecompressFile@Rtl@WCP@Windows@@YGJKPAUIRtlFile@13@0@Z @ 138
?LoadFirstResourceLanguageAgnostic@Rtl@Windows@@YGJKPAUHINSTANCE__@@PBG1PAU_LBLOB@@@Z @ 139
?ManuallyMarkComponentStaged@CRawStoreLayout@ComponentStore@@QAEJABVCComponentAccessor@@PBU_LBLOB@@@Z @ 140
?MarkServicingStackCorruptHelper@LocalInstallerServices@COM@WCP@Windows@@UAGJXZ @ 143
?Next@CXmlCursor@@QAEJXZ @ 144
?OpenComponentDerivedData@VersionedIndexHelper@ComponentStore@@QAEJ_NPBU_LUNICODE_STRING@@1PAUComponentData@2@PA_N@Z @ 145
?OpenFamilyMap@CRawInstallMap@InstallMap@@QAEJ_NPAUIRtlDefinitionIdentity@Rtl@Identity@Windows@@PAUMapForFamily@2@PA_N@Z @ 146
?ParseBase16String@Rtl@Implementation@WCP@Windows@@YGJKPBE0P6I?AU_RTL_UCSCHAR_DECODER_RETURN_VALUE@@00@ZPAU_LBLOB@@PA_N@Z @ 147
?ParseDottedVersion@Rtl@Implementation@WCP@Windows@@YGJKPBE0P6I?AU_RTL_UCSCHAR_DECODER_RETURN_VALUE@@00@ZPAT_FOUR_PART_VERSION@@PAKPA_N@Z @ 148
?ParseFromBlob@WcpManifest@@QAEJABU_LBLOB@@PAVStopWatch@Rtl@Windows@@@Z @ 149
?ParseFromBlob@WcpManifest@@QAEJW4ParseDocumentFlags@XmlParserGenerator@@ABU_LBLOB@@PAVStopWatch@Rtl@Windows@@@Z @ 150
?PoqWasExecutedInline@LocalInstallerServices@COM@WCP@Windows@@UAG_NXZ @ 151
?PrepareForInspect@CCoordinator@PrimitiveInstaller@@QAEJXZ @ 152
?ProcessChange@CCoordinator@PrimitiveInstaller@@QAEJABUComponentChange@2@@Z @ 153
?QueryComponentFlag@CRawStoreLayout@ComponentStore@@SGJABUComponentData@2@PA_NPAK@Z @ 154
?QueryConfigurationOption@CRawStoreLayout@ComponentStore@@QBEJABU_GUID@@KPAK@Z @ 155
?QueryConfigurationOption@CRawStoreLayout@ComponentStore@@QBEJABU_GUID@@_NPA_N@Z @ 156
?QueryInterface@LocalInstallerServices@COM@WCP@Windows@@UAGJABU_GUID@@PAPAX@Z @ 157
?QueryInterface@LocalTransformerServices@COM@WCP@Windows@@UAGJABU_GUID@@PAPAX@Z @ 158
?QuerySingleResourceOwnershipConfiguration@LocalInstallerServices@COM@WCP@Windows@@UAGJPA_N@Z @ 159
?QuerySmiHiveUpdatesConfiguration@LocalInstallerServices@COM@WCP@Windows@@UAGJPAK@Z @ 160
?QueryUnchangedFileVersions@VersionedIndexHelper@ComponentStore@@QAEJ_N0PAUIRtlDefinitionIdentity@Rtl@Identity@Windows@@ABU_LUNICODE_STRING@@ABU_LBLOB@@PAV?$CVector@T_FOUR_PART_VERSION@@VCCallDisposition@Rtl@BUCL@@@BUCL@@PA_N@Z @ 161
?ReadAt@CBufferedStream@@QAEJ_KKPAXPAK@Z @ 162
?ReadKeyValue@ComponentStore@@YGJPAUIRtlKey@Rtl@Windows@@PBU_LUNICODE_STRING@@PAV?$Auto@U_LBLOB@@@4@PAPBU_KEY_VALUE_PARTIAL_INFORMATION@@PA_N@Z @ 163
?Release@LocalInstallerServices@COM@WCP@Windows@@UAGKXZ @ 164
?Release@LocalTransformerServices@COM@WCP@Windows@@UAGKXZ @ 165
?RemoveComponentImplication@CRawStoreLayout@ComponentStore@@QAEJABUComponentData@2@PAUTlcData@2@@Z @ 166
?RemoveInstallMarkFromFamily@CRawInstallMap@InstallMap@@QAEJPAUMapForFamily@2@ABT_FOUR_PART_VERSION@@@Z @ 167
?RemoveTlcMark@CRawStoreLayout@ComponentStore@@QAEJKABUTlcInstaller@2@PAUTlcData@2@@Z @ 168
?ReplaceMacros@LocalInstallerServices@COM@WCP@Windows@@UAGJKPB_WPAPA_WPAUIDefinitionIdentity@@@Z @ 169
?ReplaceMacros@LocalTransformerServices@COM@WCP@Windows@@UAGJKPB_WPAPA_WK@Z @ 170
?ResolvePendingPhases@COM@Windows@@YGJKPAVCQueueExecutor@12@PA_N@Z @ 171
?RtlCaptureTracingParameterList@Rtl@WCP@Windows@@YIXKKPADQAU_RTL_TRACING_PARAMETER@123@@Z @ 172
?RtlFormatIntoStreamFromParameterList@Rtl@WCP@Windows@@YIXPAUIRtlFormattedOutputStream@13@QBDKQBU_RTL_TRACING_PARAMETER@123@@Z @ 173
?RtlGetFacilityTracingFlags@Rtl@WCP@Windows@@YIKPAU_RTL_TRACING_FACILITY@123@@Z @ 174
?RtlIsTracingEnabled@Rtl@WCP@Windows@@YI_NPAU_RTL_TRACING_FACILITY@123@K@Z @ 175
?RtlShutdownTracing@Rtl@WCP@Windows@@YIXXZ @ 176
?RtlTraceEx@Rtl@WCP@Windows@@YIXPBU_RTL_TRACING_STATIC_DATA@123@QBQBX@Z @ 177
?RtlTraceFailureFromGroupList@Rtl@WCP@Windows@@YIXKKPAU_RTL_TRACING_FACILITY@123@PBU_RTL_TRACING_FAILURE_DATA@123@KQBU_RTL_FORMATTING_GROUP@123@@Z @ 178
?RtlTraceFormat_FormattableObject@Rtl@WCP@Windows@@YIXPAUIRtlFormattedOutputStream@13@PBX@Z @ 179
?RtlTraceFormat_HANDLE@Rtl@WCP@Windows@@YIXPAUIRtlFormattedOutputStream@13@PBX@Z @ 180
?RtlTraceFormat_IRtlBaseIdentity@Rtl@WCP@Windows@@YIXPAUIRtlFormattedOutputStream@13@PBX@Z @ 181
?RtlTraceFormat_IRtlDefinitionAppId@Rtl@WCP@Windows@@YIXPAUIRtlFormattedOutputStream@13@PBX@Z @ 182
?RtlTraceFormat_PCBOOLEAN@Rtl@WCP@Windows@@YIXPAUIRtlFormattedOutputStream@13@PBX@Z @ 183
?RtlTraceFormat_PCFOUR_PART_VERSION@Rtl@WCP@Windows@@YIXPAUIRtlFormattedOutputStream@13@PBX@Z @ 184
?RtlTraceFormat_PCGUID@Rtl@WCP@Windows@@YIXPAUIRtlFormattedOutputStream@13@PBX@Z @ 185
?RtlTraceFormat_PCHRESULT@Rtl@WCP@Windows@@YIXPAUIRtlFormattedOutputStream@13@PBX@Z @ 186
?RtlTraceFormat_PCLARGE_INTEGER_AsReadableTime@Rtl@WCP@Windows@@YIXPAUIRtlFormattedOutputStream@13@PBX@Z @ 187
?RtlTraceFormat_PCLARGE_INTEGER_AsTime@Rtl@WCP@Windows@@YIXPAUIRtlFormattedOutputStream@13@PBX@Z @ 188
?RtlTraceFormat_PCLBLOB@Rtl@WCP@Windows@@YIXPAUIRtlFormattedOutputStream@13@PBX@Z @ 189
?RtlTraceFormat_PCLBLOB_AsBase64@Rtl@WCP@Windows@@YIXPAUIRtlFormattedOutputStream@13@PBX@Z @ 190
?RtlTraceFormat_PCLBLOB_LimitLength@Rtl@WCP@Windows@@YIXPAUIRtlFormattedOutputStream@13@PBX@Z @ 191
?RtlTraceFormat_PCLONG@Rtl@WCP@Windows@@YIXPAUIRtlFormattedOutputStream@13@PBX@Z @ 192
?RtlTraceFormat_PCLUNICODE_STRING@Rtl@WCP@Windows@@YIXPAUIRtlFormattedOutputStream@13@PBX@Z @ 193
?RtlTraceFormat_PCLUNICODE_STRING_AsLiteralString@Rtl@WCP@Windows@@YIXPAUIRtlFormattedOutputStream@13@PBX@Z @ 194
?RtlTraceFormat_PCLUTF8_STRING@Rtl@WCP@Windows@@YIXPAUIRtlFormattedOutputStream@13@PBX@Z @ 195
?RtlTraceFormat_PCLUTF8_STRING_AsLiteralString@Rtl@WCP@Windows@@YIXPAUIRtlFormattedOutputStream@13@PBX@Z @ 196
?RtlTraceFormat_PCNTSTATUS@Rtl@WCP@Windows@@YIXPAUIRtlFormattedOutputStream@13@PBX@Z @ 197
?RtlTraceFormat_PCPCVOID@Rtl@WCP@Windows@@YIXPAUIRtlFormattedOutputStream@13@PBX@Z @ 198
?RtlTraceFormat_PCPCVOID_AsOptDerefPCVOID@Rtl@WCP@Windows@@YIXPAUIRtlFormattedOutputStream@13@PBX@Z @ 199
?RtlTraceFormat_PCSIZE_T@Rtl@WCP@Windows@@YIXPAUIRtlFormattedOutputStream@13@PBX@Z @ 200
?RtlTraceFormat_PCSTR@Rtl@WCP@Windows@@YIXPAUIRtlFormattedOutputStream@13@PBX@Z @ 201
?RtlTraceFormat_PCSTR_AsLiteralString@Rtl@WCP@Windows@@YIXPAUIRtlFormattedOutputStream@13@PBX@Z @ 202
?RtlTraceFormat_PCULONG@Rtl@WCP@Windows@@YIXPAUIRtlFormattedOutputStream@13@PBX@Z @ 203
?RtlTraceFormat_PCULONGLONG@Rtl@WCP@Windows@@YIXPAUIRtlFormattedOutputStream@13@PBX@Z @ 204
?RtlTraceFormat_PCULONGLONG_AsDecimalOnly@Rtl@WCP@Windows@@YIXPAUIRtlFormattedOutputStream@13@PBX@Z @ 205
?RtlTraceFormat_PCULONGLONG_AsTickDelta@Rtl@WCP@Windows@@YIXPAUIRtlFormattedOutputStream@13@PBX@Z @ 206
?RtlTraceFormat_PCULONG_AsDecimalOnly@Rtl@WCP@Windows@@YIXPAUIRtlFormattedOutputStream@13@PBX@Z @ 207
?RtlTraceFormat_PCULONG_AsHexadecimalOnly@Rtl@WCP@Windows@@YIXPAUIRtlFormattedOutputStream@13@PBX@Z @ 208
?RtlTraceFormat_PCULONG_AsHexadecimalOnly_ShortZero@Rtl@WCP@Windows@@YIXPAUIRtlFormattedOutputStream@13@PBX@Z @ 209
?RtlTraceFormat_PCULONG_AsRegValueType@Rtl@WCP@Windows@@YIXPAUIRtlFormattedOutputStream@13@PBX@Z @ 210
?RtlTraceFormat_PCULONG_AsSpecialCount@Rtl@WCP@Windows@@YIXPAUIRtlFormattedOutputStream@13@PBX@Z @ 211
?RtlTraceFormat_PCULONG_AsWin32Error@Rtl@WCP@Windows@@YIXPAUIRtlFormattedOutputStream@13@PBX@Z @ 212
?RtlTraceFormat_PCULONG_PTR@Rtl@WCP@Windows@@YIXPAUIRtlFormattedOutputStream@13@PBX@Z @ 213
?RtlTraceFormat_PCUNICODE_STRING@Rtl@WCP@Windows@@YIXPAUIRtlFormattedOutputStream@13@PBX@Z @ 214
?RtlTraceFormat_PCUSHORT_AsProcessorArchitecture@Rtl@WCP@Windows@@YIXPAUIRtlFormattedOutputStream@13@PBX@Z @ 215
?RtlTraceFormat_PCVOID@Rtl@WCP@Windows@@YIXPAUIRtlFormattedOutputStream@13@PBX@Z @ 216
?RtlTraceFormat_PCWSTR@Rtl@WCP@Windows@@YIXPAUIRtlFormattedOutputStream@13@PBX@Z @ 217
?RtlTraceFormat_PCWSTR_Array@Rtl@WCP@Windows@@YIXPAUIRtlFormattedOutputStream@13@PBX@Z @ 218
?RtlTraceFormat_PCWSTR_AsLiteralString@Rtl@WCP@Windows@@YIXPAUIRtlFormattedOutputStream@13@PBX@Z @ 219
?RtlTraceFormat_PCbool@Rtl@WCP@Windows@@YIXPAUIRtlFormattedOutputStream@13@PBX@Z @ 220
?RtlTraceFormat_PCbool_AsSuccessIndicator@Rtl@WCP@Windows@@YIXPAUIRtlFormattedOutputStream@13@PBX@Z @ 221
?RtlTraceFormat_RegistryValue@Rtl@WCP@Windows@@YIXPAUIRtlFormattedOutputStream@13@PBX@Z @ 222
?RtlTraceFromGroupList@Rtl@WCP@Windows@@YIXKPAU_RTL_TRACING_FACILITY@123@PBU_RTL_TRACING_FAILURE_DATA@123@KQBU_RTL_FORMATTING_GROUP@123@@Z @ 223
?RtlTraceVa@Rtl@WCP@Windows@@YIXKKPAU_RTL_TRACING_FACILITY@123@QBDKPAD@Z @ 224
?RtlWcpParseManifestFromXml@Rtl@Implementation@WCP@Windows@@YGJKPBU_LBLOB@@PAUIParseErrorCallback@1Microdom@4@PAUIRtlManifestParseErrorCallback@1ManifestParser@4@PAV?$Auto@PAVIRtlCdf@Rtl@Cdf@Windows@@@4@@Z @ 225
?RtlpSetSystem@WcpDllDebug@@YGJKPAUIRtlSystemIsolationLayer@Rtl@Windows@@@Z @ 226
?Scavenge@CRawStoreLayout@ComponentStore@@QAEJ_NABUScavengeControl@12@PAUIRtlDirectory@Rtl@Windows@@PAUIScavengeLastDitch@12@@Z @ 227
?SetComponentFileStageFlag@CRawStoreLayout@ComponentStore@@QAEJ_NPAUIRtlDefinitionIdentity@Rtl@Identity@Windows@@ABU_LUNICODE_STRING@@@Z @ 228
?SetComponentFlag@CRawStoreLayout@ComponentStore@@QAEJ_NKABUComponentData@2@@Z @ 229
?SetComponentFlag@CRawStoreLayout@ComponentStore@@QAEJ_NKPAUIRtlDefinitionIdentity@Rtl@Identity@Windows@@@Z @ 230
?SetFamilyWinningVersion@CRawInstallMap@InstallMap@@QAEJPAUMapForFamily@2@PAUIRtlDefinitionIdentity@Rtl@Identity@Windows@@@Z @ 231
?ShouldRunAIs@ExecutionQueueDeriver@AiQueue@@QAEJPAUIRtlDefinitionIdentity@Rtl@Identity@Windows@@PA_N@Z @ 232
?SilCreateDirectories@Rtl@Windows@@YGJPAUIRtlSystemIsolationLayerPublic@12@ABU_LUNICODE_STRING@@@Z @ 233
?SilCreateKeys@Rtl@Windows@@YGJPAUIRtlSystemIsolationLayerPublic@12@ABU_LUNICODE_STRING@@@Z @ 234
?SilGetRegistryDWORD@Rtl@Windows@@YGJKPAUIRtlKey@12@ABU_LUNICODE_STRING@@PAK2@Z @ 235
?SilGetRegistryDWORD@Rtl@Windows@@YGJKPAUIRtlSystemIsolationLayerPublic@12@ABU_LUNICODE_STRING@@1PAK2@Z @ 236
?SilGetRegistryString@Rtl@Windows@@YGJKPAUIRtlSystemIsolationLayerPublic@12@ABU_LUNICODE_STRING@@1PAV?$Auto@U_LUNICODE_STRING@@@2@PAK@Z @ 237
?SplitWin32RegistryPathIntoBaseAndSubKey@COM@Windows@@YGJPBGPAPAUHKEY__@@PAPBG@Z @ 238
?TraceChangeList@Rtl@ComponentStore@Windows@@YIXPAUIRtlFormattedOutputStream@13@PBX@Z @ 239
?TraceETWEvent@Rtl@WCP@Windows@@YAXU_EVENT_DESCRIPTOR@@PBGZZ @ 240
?TrimNamespaceTable@CC14NCanonicalizer@@MAEJUElement@Rtl@Microdom@Windows@@PAVCNamespaceTable@@PAVCAttributeTable@@@Z @ 241
?TryGetRollbackStorageDirectory@LocalTransformerServices@COM@WCP@Windows@@UAGJKPAPAUIRtlDirectory@Rtl@4@@Z @ 242
?TryGetRollbackStorageKey@LocalTransformerServices@COM@WCP@Windows@@UAGJKPAPAUIRtlKey@Rtl@4@@Z @ 243
?TryGetWin32DirectoryRollbackStoragePath@COM@Transformers@WCP@Windows@@YGJKPAUICSITransformerServices@@PAPAG@Z @ 244
?TryGetWin32RegistryRollbackStoragePath@COM@Transformers@WCP@Windows@@YGJKPAUICSITransformerServices@@PAPAUHKEY__@@PAPAG@Z @ 245
?UpdateStoreCoherencyCookie@CRawStoreLayout@ComponentStore@@QAEJPAT_LARGE_INTEGER@@@Z @ 246
?VerifyAdvancedInstaller@LocalInstallerServices@COM@WCP@Windows@@UAGJPB_W00PAK@Z @ 247
?VerifyCertChainRoot@CCatalog@@QAEJKPAK@Z @ 248
?VerifySigner@CCatalog@@QAEJPAUIRtlSystemIsolationLayer@Rtl@Windows@@@Z @ 249
?VirtualNtRegistryPathToPhysical@Rtl@Transformers@WCP@Windows@@YGJPAUICSITransformerServices@@ABU_LUNICODE_STRING@@PAV?$Auto@U_LUNICODE_STRING@@@4@K@Z @ 250
?VirtualPathToPhysical@LocalInstallerServices@COM@WCP@Windows@@UAGJKPB_WPAPA_W@Z @ 251
?VirtualWin32RegistryPathToPhysical@COM@Transformers@WCP@Windows@@YGJPAUICSITransformerServices@@PBGPAPAUHKEY__@@PAPAGK@Z @ 252
?WriteAt@CBufferedStream@@QAEJ_KKPBXPAK@Z @ 253
?get_IsolationAllocator@LocalInstallerServices@COM@WCP@Windows@@UAGJPAPAUIMalloc@@@Z @ 254
?get_RebootIndicator@LocalInstallerServices@COM@WCP@Windows@@UAGJPAW4RebootIndicators@@@Z @ 255
?get_System@LocalInstallerServices@COM@WCP@Windows@@UAGJPAPAUIRtlSystemIsolationLayerPublic@Rtl@4@@Z @ 256
?get_TargetProcessorArchitecture@LocalInstallerServices@COM@WCP@Windows@@UAGJPAK@Z @ 257
?get_UserProfile@LocalInstallerServices@COM@WCP@Windows@@UAGJPAPAUIRtlUserProfile@Rtl@4@@Z @ 258
?put_RebootIndicator@LocalInstallerServices@COM@WCP@Windows@@UAGJW4RebootIndicators@@@Z @ 259
?utiludom_GetElementImmediateChildrenByName@@YGJPAUIRtlMicrodom@Rtl@Microdom@Windows@@UElement@234@PBU_LUTF8_STRING@@2PAV?$Auto@U?$Vector@UElement@Rtl@Microdom@Windows@@@Windows@@@4@@Z @ 260
?utiludom_GetElementNameDetails@@YGJPAUIRtlMicrodom@Rtl@Microdom@Windows@@UElement@234@PAPBU_LUTF8_STRING@@22@Z @ 261
AddTrusteeCapabilities @ 41
AllocateTrusteeData @ 42
ApplyTransactionPOQsToSil @ 335
ConvertHResultToNtStatus @ 336
ConvertNtStatusToHResult @ 337
CreateNewOfflineStore @ 338
CreateNewPseudoWindows @ 339
CreateNewPseudoWindowsEx @ 340
CreateNewWindows @ 341
DeleteTrusteeCapabilities @ 66
DeleteTrusteeData @ 67
DismountRegistryHives @ 342
DllCsiGetHandler @ 343
EnumerateFileRedirections @ 75
EnumerateRegistryRedirections @ 76
ExecuteMidgroundInstallers @ 344
ExpandAndNullTerminateEnvironmentVariableString @ 345
FreeAndZeroCSI_BROKEN_COMPONENT @ 346
FreeAndZeroCSI_REPAIRED_COMPONENT @ 347
FreeRedirectionsMemory @ 87
GetAppIdAuthority @ 348
GetFriendlyInstallerName @ 349
GetGroupTrusteeDataCountFromManifest @ 97
GetGroupTrusteeDataFromManifest @ 98
GetIdentityAuthority @ 350
GetPrimitiveInstallerSupport @ 351
GetSystemStore @ 352
GetVersionString @ 353
InitializeCSI_BROKEN_COMPONENT @ 354
InitializeCSI_REPAIRED_COMPONENT @ 355
IsCompactOSEnabled @ 356
IsIdentityPnPDriver @ 357
IsSkuAssembly @ 358
MapToPrivilegeName @ 141
MapToWellKnownSidType @ 142
MergeTwoChangeLists @ 359
OpenExistingOfflineStore @ 360
ParseManifest @ 361
ParseManifestEx @ 362
PoqParsePoqexecLog @ 363
RtlAllocateLBlob @ 364
RtlAllocateLUnicodeString @ 365
RtlAllocateLUtf8String @ 366
RtlAllocateUnicodeString @ 367
RtlAppendLUnicodeStringToLUnicodeString @ 262
RtlAppendLUtf8StringToLUnicodeString @ 263
RtlAppendLUtf8StringToLUtf8String @ 264
RtlAppendUcsCharacterToLUnicodeString @ 368
RtlAppendUcsCharactersToLUnicodeString @ 369
RtlBase64EncodeLBlobToLUnicodeString @ 370
RtlCalculateUtf16StringLengthFromLUtf8String @ 371
RtlCombineNtPathSegments @ 265
RtlCommitSmartLBlobUcsWritingContext @ 266
RtlCompareLUnicodeStringToLUtf8String @ 372
RtlCompareLUnicodeStrings @ 373
RtlCompareLUtf8Strings @ 374
RtlConcatenateLUnicodeStrings @ 375
RtlConcatenateLUtf8Strings @ 376
RtlConvertNtFilePathToWin32FilePath @ 267
RtlConvertNtRegistryPathToWin32RegistryPath @ 268
RtlConvertWin32FilePathToNtFilePath @ 269
RtlConvertWin32RegistryPathToNtRegistryPath @ 270
RtlConvertWin32RegistryPathToNtRegistryPathWithSid @ 271
RtlCopyLBlob @ 272
RtlCopyLUnicodeString @ 273
RtlCopyLUtf8String @ 274
RtlCopyLUtf8StringToLUnicodeString @ 275
RtlCreateCdfEx @ 276
RtlCreateDefaultMicrodomXmlWriter @ 377
RtlCreateDefaultXmlWriter @ 378
RtlCreateMicrodom @ 379
RtlCreateMicrodomUpdateContext @ 277
RtlCreateUpdatedMicrodomAsMicrodom @ 278
RtlCreateUpdatedMicrodomAsUtf8 @ 279
RtlCreateUtf16LEUCSStringBuilder @ 380
RtlCreateUtf8UCSStringBuilder @ 381
RtlDeallocateUnicodeString @ 280
RtlDecodeBase64LUnicodeStringToLBlob @ 382
RtlDecodeBase64LUtf8StringToLBlob @ 383
RtlDecodeUtf16LE @ 281
RtlDecodeUtf8 @ 282
RtlDestroyGrowingList @ 384
RtlDestroyMicrodomUpdateContext @ 283
RtlDetermineTranscodedLBlobSize @ 385
RtlDoesLUnicodeStringMatchExpression @ 386
RtlDowncaseUCSCharacter @ 284
RtlDuplicateCountedStringToLUnicodeString @ 285
RtlDuplicateLBlob @ 286
RtlDuplicateLUnicodeString @ 287
RtlDuplicateLUnicodeStringToLUtf8String @ 288
RtlDuplicateLUtf8String @ 289
RtlDuplicateLUtf8StringToLUnicodeString @ 290
RtlDuplicateNullTerminatedAnsiStringToLUnicodeString @ 291
RtlDuplicateNullTerminatedStringToLUnicodeString @ 292
RtlDuplicateUnicodeStringToLUnicodeString @ 293
RtlDuplicateUnicodeStringToLUtf8String @ 294
RtlEncodeUtf16LE @ 295
RtlEncodeUtf8 @ 296
RtlEqualLUnicodeStringPrefix @ 387
RtlEqualLUnicodeStringSuffix @ 388
RtlEqualLUnicodeStrings @ 389
RtlEqualLUtf8StringPrefix @ 390
RtlEqualLUtf8Strings @ 391
RtlExecuteXPathOverMicrodom @ 392
RtlFilterLUnicodeString @ 393
RtlFinalizeSmartLBlobUcsWritingContext @ 297
RtlFreeLBlob @ 298
RtlFreeLUnicodeString @ 299
RtlFreeLUtf8String @ 300
RtlGetAppIdAuthority @ 394
RtlGetDirectSystem @ 301
RtlGetEncodingSizeUtf16 @ 302
RtlGetEncodingSizeUtf8 @ 303
RtlGetHashAlgorithmHashLength @ 395
RtlGetIdentityAuthority @ 396
RtlGetSystem @ 304
RtlHashLBlob @ 397
RtlHashLUnicodeString @ 305
RtlHashLUtf8String @ 306
RtlIndexIntoGrowingList @ 398
RtlInitLUnicodeStringFromNullTerminatedString @ 307
RtlInitLUnicodeStringFromUnicodeString @ 308
RtlInitUnicodeStringFromLUnicodeString @ 309
RtlInitializeGrowingList @ 399
RtlInitializeSmartLUnicodeStringWritingContext @ 400
RtlIsLBlobValid @ 310
RtlIsLUnicodeStringValid @ 311
RtlLengthOfUcsCharacterEncodedAsUtf8 @ 312
RtlMatchLUnicodeStringAgainstLUtf8StringList @ 401
RtlMatchLUnicodeStringAgainstList @ 402
RtlMatchLUnicodeStringAgainstPointerList @ 403
RtlMatchLUtf8StringAgainstList @ 404
RtlMatchLUtf8StringAgainstPointerList @ 405
RtlMicrodomUpdateCreateAttributeNs @ 313
RtlMicrodomUpdateCreateElementNs @ 314
RtlMicrodomUpdateCreateTextual @ 315
RtlMicrodomUpdateGetCookieForExistingAttribute @ 316
RtlMicrodomUpdateGetCookieForExistingElement @ 317
RtlMicrodomUpdateGetCookieForExistingNode @ 318
RtlMicrodomUpdateInsertChild @ 319
RtlMicrodomUpdateInsertMicrodomNode @ 320
RtlMicrodomUpdateRemoveChild @ 321
RtlMicrodomUpdateRemoveElement @ 322
RtlMicrodomUpdateSetNodeName @ 323
RtlMicrodomUpdateSetNodeTextContent @ 324
RtlMurmurHashLBlob @ 406
RtlNsDestroy @ 407
RtlNsInitialize @ 408
RtlParseDottedVersion @ 409
RtlParseManifestMicrodomIntoCdf @ 410
RtlPreInitializeSmartLBlobUcsWritingContext @ 325
RtlReallocateLBlob @ 411
RtlReallocateLUnicodeString @ 412
RtlReallocateLUtf8String @ 413
RtlReallocateUnicodeString @ 414
RtlRegisterErrorOriginationCallback @ 415
RtlReplaceSystemPathMappings @ 326
RtlReportErrorOrigination @ 416
RtlReportErrorPropagation @ 417
RtlShutdownMicrodomSystem @ 418
RtlSmartMultiUcsEncoder_Utf16LE @ 327
RtlSmartMultiUcsEncoder_Utf8 @ 328
RtlSmartUcsEncoder_Utf16LE @ 329
RtlSmartUcsEncoder_Utf8 @ 330
RtlSplitLUnicodeString @ 419
RtlSplitLUtf8String @ 420
RtlSplitNtPath @ 331
RtlSplitWin32RegistryPathIntoRootAndLeaves @ 332
RtlTranscodeLBlobs @ 421
RtlUpcaseUCSCharacter @ 333
RtlWcpDllDebugEntrypoint @ 422
RtlWriteDecodedUcsDataIntoSmartLBlobUcsWritingContext @ 423
RtlWriteMicrodomXml @ 424
RtlWriteUcsDataIntoSmartLBlobUcsWritingContext @ 425
RtlXmlCloneRawTokenizationState @ 334
RtlXmlCopyStringOut @ 426
RtlXmlDefaultCompareStrings @ 427
RtlXmlDestroyNextLogicalThing @ 428
RtlXmlDetermineStreamEncoding @ 429
RtlXmlExtentToString @ 430
RtlXmlExtentToUtf8String @ 431
RtlXmlInitializeNextLogicalThing @ 432
RtlXmlInitializeTokenization @ 433
RtlXmlNextLogicalThing @ 434
RtlXmlNextToken @ 435
SetIsolationIMalloc @ 436
SilCreateBufferedSil @ 437
SilCreateRerootedSil @ 438
WcpInitialize @ 439
WcpReportExternalErrorOrigination @ 440
WcpSetHelperCallback @ 441
WcpShutdown @ 442
WriteWinnersFromChangelist @ 443
